target datalayout = "e-m:e-p270:32:32-p271:32:32-p272:64:64-i64:64-i128:128-f80:128-n8:16:32:64-S128"
target triple = "x86_64-pc-linux-gnu"

%struct.PQcommMethods = type { ptr, ptr, ptr, ptr, ptr, ptr }

@PqCommMethods = external global ptr, align 8

; Function Attrs: nounwind uwtable
define dso_local void @pq_puttextmessage(i8 noundef signext %0, ptr noundef %1) #0 {
  %3 = alloca i8, align 1
  %4 = alloca ptr, align 8
  %5 = alloca i32, align 4
  %6 = alloca ptr, align 8
  %7 = alloca i32, align 4
  store i8 %0, ptr %3, align 1
  store ptr %1, ptr %4, align 8
  call void @llvm.lifetime.start.p0(i64 4, ptr %5) #8
  %8 = load ptr, ptr %4, align 8
  %9 = call i64 @strlen(ptr noundef %8) #9
  %10 = trunc i64 %9 to i32
  store i32 %10, ptr %5, align 4
  call void @llvm.lifetime.start.p0(i64 8, ptr %6) #8
  %11 = load ptr, ptr %4, align 8
  %12 = load i32, ptr %5, align 4
  %13 = call ptr @pg_server_to_client(ptr noundef %11, i32 noundef %12)
  store ptr %13, ptr %6, align 8
  %14 = load ptr, ptr %6, align 8
  %15 = load ptr, ptr %4, align 8
  %16 = icmp ne ptr %14, %15
  br i1 %16, label %17, label %28

17:                                               ; preds = %2
  %18 = load ptr, ptr @PqCommMethods, align 8
  %19 = getelementptr inbounds nuw %struct.PQcommMethods, ptr %18, i32 0, i32 4
  %20 = load ptr, ptr %19, align 8
  %21 = load i8, ptr %3, align 1
  %22 = load ptr, ptr %6, align 8
  %23 = load ptr, ptr %6, align 8
  %24 = call i64 @strlen(ptr noundef %23) #9
  %25 = add i64 %24, 1
  %26 = call i32 %20(i8 noundef signext %21, ptr noundef %22, i64 noundef %25)
  %27 = load ptr, ptr %6, align 8
  call void @pfree(ptr noundef %27)
  store i32 1, ptr %7, align 4
  br label %38

28:                                               ; preds = %2
  %29 = load ptr, ptr @PqCommMethods, align 8
  %30 = getelementptr inbounds nuw %struct.PQcommMethods, ptr %29, i32 0, i32 4
  %31 = load ptr, ptr %30, align 8
  %32 = load i8, ptr %3, align 1
  %33 = load ptr, ptr %4, align 8
  %34 = load i32, ptr %5, align 4
  %35 = add i32 %34, 1
  %36 = sext i32 %35 to i64
  %37 = call i32 %31(i8 noundef signext %32, ptr noundef %33, i64 noundef %36)
  store i32 0, ptr %7, align 4
  br label %38

38:                                               ; preds = %28, %17
  call void @llvm.lifetime.end.p0(i64 8, ptr %6) #8
  call void @llvm.lifetime.end.p0(i64 4, ptr %5) #8
  %39 = load i32, ptr %7, align 4
  switch i32 %39, label %41 [
    i32 0, label %40
    i32 1, label %40
  ]

40:                                               ; preds = %38, %38
  ret void

41:                                               ; preds = %38
  unreachable
}