; Function Attrs: nounwind uwtable
define dso_local void @pq_puttextmessage(i8 noundef signext %0, ptr noundef %1) local_unnamed_addr #0 {
  %3 = tail call i64 @strlen(ptr noundef nonnull dereferenceable(1) %1) #10
  %4 = trunc i64 %3 to i32
  %5 = tail call ptr @pg_server_to_client(ptr noundef nonnull %1, i32 noundef %4) #9
  %.not = icmp eq ptr %5, %1
  %6 = load ptr, ptr @PqCommMethods, align 8
  %7 = getelementptr inbounds nuw i8, ptr %6, i64 32
  %8 = load ptr, ptr %7, align 8
  br i1 %.not, label %13, label %9

9:                                                ; preds = %2
  %10 = tail call i64 @strlen(ptr noundef nonnull dereferenceable(1) %5) #10
  %11 = add i64 %10, 1
  %12 = tail call i32 %8(i8 noundef signext %0, ptr noundef nonnull %5, i64 noundef %11) #9
  tail call void @pfree(ptr noundef nonnull %5) #9
  br label %17

13:                                               ; preds = %2
  %14 = shl i64 %3, 32
  %sext = add i64 %14, 4294967296
  %15 = ashr exact i64 %sext, 32
  %16 = tail call i32 %8(i8 noundef signext %0, ptr noundef nonnull %1, i64 noundef %15) #9
  br label %17

17:                                               ; preds = %13, %9
  ret void
}